target datalayout = "e-m:e-p270:32:32-p271:32:32-p272:64:64-i64:64-i128:128-f80:128-n8:16:32:64-S128"
target triple = "x86_64-pc-linux-gnu"

; Function Attrs: mustprogress nounwind uwtable
define void @ubidi_invertMap_77(ptr noundef %0, ptr noundef %1, i32 noundef %2) #4 {
  %4 = alloca ptr, align 8
  %5 = alloca ptr, align 8
  %6 = alloca i32, align 4
  %7 = alloca ptr, align 8
  %8 = alloca i32, align 4
  %9 = alloca i32, align 4
  store ptr %0, ptr %4, align 8, !tbaa !57
  store ptr %1, ptr %5, align 8, !tbaa !57
  store i32 %2, ptr %6, align 4, !tbaa !8
  %10 = load ptr, ptr %4, align 8, !tbaa !57
  %11 = icmp ne ptr %10, null
  br i1 %11, label %12, label %81

12:                                               ; preds = %3
  %13 = load ptr, ptr %5, align 8, !tbaa !57
  %14 = icmp ne ptr %13, null
  br i1 %14, label %15, label %81

15:                                               ; preds = %12
  %16 = load i32, ptr %6, align 4, !tbaa !8
  %17 = icmp sgt i32 %16, 0
  br i1 %17, label %18, label %81

18:                                               ; preds = %15
  call void @llvm.lifetime.start.p0(i64 8, ptr %7) #8
  call void @llvm.lifetime.start.p0(i64 4, ptr %8) #8
  store i32 -1, ptr %8, align 4, !tbaa !8
  call void @llvm.lifetime.start.p0(i64 4, ptr %9) #8
  store i32 0, ptr %9, align 4, !tbaa !8
  %19 = load ptr, ptr %4, align 8, !tbaa !57
  %20 = load i32, ptr %6, align 4, !tbaa !8
  %21 = sext i32 %20 to i64
  %22 = getelementptr inbounds i32, ptr %19, i64 %21
  store ptr %22, ptr %7, align 8, !tbaa !57
  br label %23

23:                                               ; preds = %43, %18
  %24 = load ptr, ptr %7, align 8, !tbaa !57
  %25 = load ptr, ptr %4, align 8, !tbaa !57
  %26 = icmp ugt ptr %24, %25
  br i1 %26, label %27, label %44

27:                                               ; preds = %23
  %28 = load ptr, ptr %7, align 8, !tbaa !57
  %29 = getelementptr inbounds i32, ptr %28, i32 -1
  store ptr %29, ptr %7, align 8, !tbaa !57
  %30 = load i32, ptr %29, align 4, !tbaa !8
  %31 = load i32, ptr %8, align 4, !tbaa !8
  %32 = icmp sgt i32 %30, %31
  br i1 %32, label %33, label %36

33:                                               ; preds = %27
  %34 = load ptr, ptr %7, align 8, !tbaa !57
  %35 = load i32, ptr %34, align 4, !tbaa !8
  store i32 %35, ptr %8, align 4, !tbaa !8
  br label %36

36:                                               ; preds = %33, %27
  %37 = load ptr, ptr %7, align 8, !tbaa !57
  %38 = load i32, ptr %37, align 4, !tbaa !8
  %39 = icmp sge i32 %38, 0
  br i1 %39, label %40, label %43

40:                                               ; preds = %36
  %41 = load i32, ptr %9, align 4, !tbaa !8
  %42 = add nsw i32 %41, 1
  store i32 %42, ptr %9, align 4, !tbaa !8
  br label %43

43:                                               ; preds = %40, %36
  br label %23, !llvm.loop !126

44:                                               ; preds = %23
  %45 = load i32, ptr %8, align 4, !tbaa !8
  %46 = add nsw i32 %45, 1
  store i32 %46, ptr %8, align 4, !tbaa !8
  %47 = load i32, ptr %9, align 4, !tbaa !8
  %48 = load i32, ptr %8, align 4, !tbaa !8
  %49 = icmp slt i32 %47, %48
  br i1 %49, label %50, label %55

50:                                               ; preds = %44
  %51 = load ptr, ptr %5, align 8, !tbaa !57
  %52 = load i32, ptr %8, align 4, !tbaa !8
  %53 = sext i32 %52 to i64
  %54 = mul i64 %53, 4
  call void @llvm.memset.p0.i64(ptr align 4 %51, i8 -1, i64 %54, i1 false)
  br label %55

55:                                               ; preds = %50, %44
  %56 = load ptr, ptr %4, align 8, !tbaa !57
  %57 = load i32, ptr %6, align 4, !tbaa !8
  %58 = sext i32 %57 to i64
  %59 = getelementptr inbounds i32, ptr %56, i64 %58
  store ptr %59, ptr %7, align 8, !tbaa !57
  br label %60

60:                                               ; preds = %79, %55
  %61 = load i32, ptr %6, align 4, !tbaa !8
  %62 = icmp sgt i32 %61, 0
  br i1 %62, label %63, label %80

63:                                               ; preds = %60
  %64 = load ptr, ptr %7, align 8, !tbaa !57
  %65 = getelementptr inbounds i32, ptr %64, i32 -1
  store ptr %65, ptr %7, align 8, !tbaa !57
  %66 = load i32, ptr %65, align 4, !tbaa !8
  %67 = icmp sge i32 %66, 0
  br i1 %67, label %68, label %76

68:                                               ; preds = %63
  %69 = load i32, ptr %6, align 4, !tbaa !8
  %70 = add nsw i32 %69, -1
  store i32 %70, ptr %6, align 4, !tbaa !8
  %71 = load ptr, ptr %5, align 8, !tbaa !57
  %72 = load ptr, ptr %7, align 8, !tbaa !57
  %73 = load i32, ptr %72, align 4, !tbaa !8
  %74 = sext i32 %73 to i64
  %75 = getelementptr inbounds i32, ptr %71, i64 %74
  store i32 %70, ptr %75, align 4, !tbaa !8
  br label %79

76:                                               ; preds = %63
  %77 = load i32, ptr %6, align 4, !tbaa !8
  %78 = add nsw i32 %77, -1
  store i32 %78, ptr %6, align 4, !tbaa !8
  br label %79

79:                                               ; preds = %76, %68
  br label %60, !llvm.loop !127

80:                                               ; preds = %60
  call void @llvm.lifetime.end.p0(i64 4, ptr %9) #8
  call void @llvm.lifetime.end.p0(i64 4, ptr %8) #8
  call void @llvm.lifetime.end.p0(i64 8, ptr %7) #8
  br label %81

81:                                               ; preds = %80, %15, %12, %3
  ret void
}