; Function Attrs: mustprogress nofree norecurse nosync nounwind memory(argmem: readwrite) uwtable
define void @ubidi_invertMap_77(ptr noundef readonly %0, ptr noundef writeonly %1, i32 noundef %2) local_unnamed_addr #6 {
  %4 = icmp ne ptr %0, null
  %5 = icmp ne ptr %1, null
  %or.cond = and i1 %4, %5
  %6 = icmp sgt i32 %2, 0
  %or.cond3 = and i1 %or.cond, %6
  br i1 %or.cond3, label %.lr.ph.preheader, label %.loopexit

.lr.ph.preheader:                                 ; preds = %3
  %7 = zext nneg i32 %2 to i64
  %8 = getelementptr inbounds nuw i32, ptr %0, i64 %7
  br label %.lr.ph

.lr.ph:                                           ; preds = %.lr.ph.preheader, %.lr.ph
  %.041 = phi i32 [ %.1, %.lr.ph ], [ 0, %.lr.ph.preheader ]
  %.02740 = phi i32 [ %spec.select, %.lr.ph ], [ -1, %.lr.ph.preheader ]
  %.02939 = phi ptr [ %9, %.lr.ph ], [ %8, %.lr.ph.preheader ]
  %9 = getelementptr inbounds i8, ptr %.02939, i64 -4
  %10 = load i32, ptr %9, align 4, !tbaa !53
  %spec.select = tail call i32 @llvm.smax.i32(i32 %10, i32 %.02740)
  %11 = icmp sgt i32 %10, -1
  %12 = zext i1 %11 to i32
  %.1 = add nuw nsw i32 %.041, %12
  %13 = icmp ugt ptr %9, %0
  br i1 %13, label %.lr.ph, label %._crit_edge, !llvm.loop !117

._crit_edge:                                      ; preds = %.lr.ph
  %.not = icmp sgt i32 %.1, %spec.select
  br i1 %.not, label %.lr.ph46.preheader, label %14

14:                                               ; preds = %._crit_edge
  %15 = add nsw i32 %spec.select, 1
  %16 = zext nneg i32 %15 to i64
  %17 = shl nuw nsw i64 %16, 2
  tail call void @llvm.memset.p0.i64(ptr nonnull align 4 %1, i8 -1, i64 %17, i1 false)
  br label %.lr.ph46.preheader

.lr.ph46.preheader:                               ; preds = %._crit_edge, %14
  br label %.lr.ph46

.lr.ph46:                                         ; preds = %.lr.ph46.preheader, %25
  %.13044 = phi ptr [ %18, %25 ], [ %8, %.lr.ph46.preheader ]
  %.03143 = phi i32 [ %21, %25 ], [ %2, %.lr.ph46.preheader ]
  %18 = getelementptr inbounds i8, ptr %.13044, i64 -4
  %19 = load i32, ptr %18, align 4, !tbaa !53
  %20 = icmp sgt i32 %19, -1
  %21 = add nsw i32 %.03143, -1
  br i1 %20, label %22, label %25

22:                                               ; preds = %.lr.ph46
  %23 = zext nneg i32 %19 to i64
  %24 = getelementptr inbounds nuw i32, ptr %1, i64 %23
  store i32 %21, ptr %24, align 4, !tbaa !53
  br label %25

25:                                               ; preds = %.lr.ph46, %22
  %26 = icmp sgt i32 %.03143, 1
  br i1 %26, label %.lr.ph46, label %.loopexit, !llvm.loop !118

.loopexit:                                        ; preds = %25, %3
  ret void
}